target datalayout = "e-m:e-p270:32:32-p271:32:32-p272:64:64-i64:64-i128:128-f80:128-n8:16:32:64-S128"
target triple = "x86_64-pc-linux-gnu"

%struct.H5S_t = type { %struct.H5S_extent_t, %struct.H5S_select_t }
%struct.H5S_extent_t = type { %struct.H5O_shared_t, i32, i32, i64, i32, ptr, ptr }
%struct.H5O_shared_t = type { i32, ptr, i32, %union.anon }
%union.anon = type { %struct.H5O_mesg_loc_t }
%struct.H5O_mesg_loc_t = type { i32, i64 }
%struct.H5S_select_t = type { ptr, i8, [32 x i64], i64, %union.anon.0 }
%union.anon.0 = type { ptr }
%struct.H5S_pnt_list_t = type { [32 x i64], [32 x i64], ptr, ptr, i64, ptr }
%struct.H5S_pnt_node_t = type { ptr, [0 x i64] }

@H5S_init_g = external global i8, align 1
@H5_libterm_g = external global i8, align 1

; Function Attrs: nounwind uwtable
define internal i32 @H5S__point_adjust_u(ptr noundef %0, ptr noundef %1) #0 {
  %3 = alloca ptr, align 8
  %4 = alloca ptr, align 8
  %5 = alloca i8, align 1
  %6 = alloca ptr, align 8
  %7 = alloca i32, align 4
  %8 = alloca i32, align 4
  store ptr %0, ptr %3, align 8, !tbaa !3
  store ptr %1, ptr %4, align 8, !tbaa !51
  call void @llvm.lifetime.start.p0(i64 1, ptr %5) #7
  store i8 0, ptr %5, align 1, !tbaa !8
  call void @llvm.lifetime.start.p0(i64 8, ptr %6) #7
  call void @llvm.lifetime.start.p0(i64 4, ptr %7) #7
  call void @llvm.lifetime.start.p0(i64 4, ptr %8) #7
  %9 = load i8, ptr @H5S_init_g, align 1, !tbaa !8, !range !12, !noundef !13
  %10 = trunc i8 %9 to i1
  br i1 %10, label %15, label %11

11:                                               ; preds = %2
  %12 = load i8, ptr @H5_libterm_g, align 1, !tbaa !8, !range !12, !noundef !13
  %13 = trunc i8 %12 to i1
  %14 = xor i1 %13, true
  br label %15

15:                                               ; preds = %11, %2
  %16 = phi i1 [ true, %2 ], [ %14, %11 ]
  %17 = xor i1 %16, true
  %18 = xor i1 %17, true
  %19 = zext i1 %18 to i32
  %20 = sext i32 %19 to i64
  %21 = call i64 @llvm.expect.i64(i64 %20, i64 1)
  %22 = icmp ne i64 %21, 0
  br i1 %22, label %23, label %126

23:                                               ; preds = %15
  store i32 0, ptr %8, align 4, !tbaa !10
  br label %24

24:                                               ; preds = %40, %23
  %25 = load i32, ptr %8, align 4, !tbaa !10
  %26 = load ptr, ptr %3, align 8, !tbaa !3
  %27 = getelementptr inbounds nuw %struct.H5S_t, ptr %26, i32 0, i32 0
  %28 = getelementptr inbounds nuw %struct.H5S_extent_t, ptr %27, i32 0, i32 4
  %29 = load i32, ptr %28, align 8, !tbaa !15
  %30 = icmp ult i32 %25, %29
  br i1 %30, label %31, label %43

31:                                               ; preds = %24
  %32 = load ptr, ptr %4, align 8, !tbaa !51
  %33 = load i32, ptr %8, align 4, !tbaa !10
  %34 = zext i32 %33 to i64
  %35 = getelementptr inbounds nuw i64, ptr %32, i64 %34
  %36 = load i64, ptr %35, align 8, !tbaa !23
  %37 = icmp ne i64 0, %36
  br i1 %37, label %38, label %39

38:                                               ; preds = %31
  store i8 1, ptr %5, align 1, !tbaa !8
  br label %43

39:                                               ; preds = %31
  br label %40

40:                                               ; preds = %39
  %41 = load i32, ptr %8, align 4, !tbaa !10
  %42 = add i32 %41, 1
  store i32 %42, ptr %8, align 4, !tbaa !10
  br label %24, !llvm.loop !65

43:                                               ; preds = %38, %24
  %44 = load i8, ptr %5, align 1, !tbaa !8, !range !12, !noundef !13
  %45 = trunc i8 %44 to i1
  br i1 %45, label %46, label %125

46:                                               ; preds = %43
  %47 = load ptr, ptr %3, align 8, !tbaa !3
  %48 = getelementptr inbounds nuw %struct.H5S_t, ptr %47, i32 0, i32 1
  %49 = getelementptr inbounds nuw %struct.H5S_select_t, ptr %48, i32 0, i32 4
  %50 = load ptr, ptr %49, align 8, !tbaa !14
  %51 = getelementptr inbounds nuw %struct.H5S_pnt_list_t, ptr %50, i32 0, i32 2
  %52 = load ptr, ptr %51, align 8, !tbaa !35
  store ptr %52, ptr %6, align 8, !tbaa !38
  %53 = load ptr, ptr %3, align 8, !tbaa !3
  %54 = getelementptr inbounds nuw %struct.H5S_t, ptr %53, i32 0, i32 0
  %55 = getelementptr inbounds nuw %struct.H5S_extent_t, ptr %54, i32 0, i32 4
  %56 = load i32, ptr %55, align 8, !tbaa !15
  store i32 %56, ptr %7, align 4, !tbaa !10
  br label %57

57:                                               ; preds = %81, %46
  %58 = load ptr, ptr %6, align 8, !tbaa !38
  %59 = icmp ne ptr %58, null
  br i1 %59, label %60, label %85

60:                                               ; preds = %57
  store i32 0, ptr %8, align 4, !tbaa !10
  br label %61

61:                                               ; preds = %78, %60
  %62 = load i32, ptr %8, align 4, !tbaa !10
  %63 = load i32, ptr %7, align 4, !tbaa !10
  %64 = icmp ult i32 %62, %63
  br i1 %64, label %65, label %81

65:                                               ; preds = %61
  %66 = load ptr, ptr %4, align 8, !tbaa !51
  %67 = load i32, ptr %8, align 4, !tbaa !10
  %68 = zext i32 %67 to i64
  %69 = getelementptr inbounds nuw i64, ptr %66, i64 %68
  %70 = load i64, ptr %69, align 8, !tbaa !23
  %71 = load ptr, ptr %6, align 8, !tbaa !38
  %72 = getelementptr inbounds nuw %struct.H5S_pnt_node_t, ptr %71, i32 0, i32 1
  %73 = load i32, ptr %8, align 4, !tbaa !10
  %74 = zext i32 %73 to i64
  %75 = getelementptr inbounds nuw [0 x i64], ptr %72, i64 0, i64 %74
  %76 = load i64, ptr %75, align 8, !tbaa !23
  %77 = sub i64 %76, %70
  store i64 %77, ptr %75, align 8, !tbaa !23
  br label %78

78:                                               ; preds = %65
  %79 = load i32, ptr %8, align 4, !tbaa !10
  %80 = add i32 %79, 1
  store i32 %80, ptr %8, align 4, !tbaa !10
  br label %61, !llvm.loop !66

81:                                               ; preds = %61
  %82 = load ptr, ptr %6, align 8, !tbaa !38
  %83 = getelementptr inbounds nuw %struct.H5S_pnt_node_t, ptr %82, i32 0, i32 0
  %84 = load ptr, ptr %83, align 8, !tbaa !38
  store ptr %84, ptr %6, align 8, !tbaa !38
  br label %57, !llvm.loop !67

85:                                               ; preds = %57
  store i32 0, ptr %8, align 4, !tbaa !10
  br label %86

86:                                               ; preds = %121, %85
  %87 = load i32, ptr %8, align 4, !tbaa !10
  %88 = load i32, ptr %7, align 4, !tbaa !10
  %89 = icmp ult i32 %87, %88
  br i1 %89, label %90, label %124

90:                                               ; preds = %86
  %91 = load ptr, ptr %4, align 8, !tbaa !51
  %92 = load i32, ptr %8, align 4, !tbaa !10
  %93 = zext i32 %92 to i64
  %94 = getelementptr inbounds nuw i64, ptr %91, i64 %93
  %95 = load i64, ptr %94, align 8, !tbaa !23
  %96 = load ptr, ptr %3, align 8, !tbaa !3
  %97 = getelementptr inbounds nuw %struct.H5S_t, ptr %96, i32 0, i32 1
  %98 = getelementptr inbounds nuw %struct.H5S_select_t, ptr %97, i32 0, i32 4
  %99 = load ptr, ptr %98, align 8, !tbaa !14
  %100 = getelementptr inbounds nuw %struct.H5S_pnt_list_t, ptr %99, i32 0, i32 0
  %101 = load i32, ptr %8, align 4, !tbaa !10
  %102 = zext i32 %101 to i64
  %103 = getelementptr inbounds nuw [32 x i64], ptr %100, i64 0, i64 %102
  %104 = load i64, ptr %103, align 8, !tbaa !23
  %105 = sub i64 %104, %95
  store i64 %105, ptr %103, align 8, !tbaa !23
  %106 = load ptr, ptr %4, align 8, !tbaa !51
  %107 = load i32, ptr %8, align 4, !tbaa !10
  %108 = zext i32 %107 to i64
  %109 = getelementptr inbounds nuw i64, ptr %106, i64 %108
  %110 = load i64, ptr %109, align 8, !tbaa !23
  %111 = load ptr, ptr %3, align 8, !tbaa !3
  %112 = getelementptr inbounds nuw %struct.H5S_t, ptr %111, i32 0, i32 1
  %113 = getelementptr inbounds nuw %struct.H5S_select_t, ptr %112, i32 0, i32 4
  %114 = load ptr, ptr %113, align 8, !tbaa !14
  %115 = getelementptr inbounds nuw %struct.H5S_pnt_list_t, ptr %114, i32 0, i32 1
  %116 = load i32, ptr %8, align 4, !tbaa !10
  %117 = zext i32 %116 to i64
  %118 = getelementptr inbounds nuw [32 x i64], ptr %115, i64 0, i64 %117
  %119 = load i64, ptr %118, align 8, !tbaa !23
  %120 = sub i64 %119, %110
  store i64 %120, ptr %118, align 8, !tbaa !23
  br label %121

121:                                              ; preds = %90
  %122 = load i32, ptr %8, align 4, !tbaa !10
  %123 = add i32 %122, 1
  store i32 %123, ptr %8, align 4, !tbaa !10
  br label %86, !llvm.loop !68

124:                                              ; preds = %86
  br label %125

125:                                              ; preds = %124, %43
  br label %126

126:                                              ; preds = %125, %15
  call void @llvm.lifetime.end.p0(i64 4, ptr %8) #7
  call void @llvm.lifetime.end.p0(i64 4, ptr %7) #7
  call void @llvm.lifetime.end.p0(i64 8, ptr %6) #7
  call void @llvm.lifetime.end.p0(i64 1, ptr %5) #7
  ret i32 0
}