; Function Attrs: nofree norecurse nosync nounwind memory(readwrite, inaccessiblemem: none) uwtable
define internal noundef i32 @H5S__point_adjust_u(ptr noundef readonly captures(none) %0, ptr noundef readonly captures(none) %1) #4 {
  %3 = load i8, ptr @H5S_init_g, align 1, !tbaa !3, !range !7, !noundef !8
  %4 = trunc nuw i8 %3 to i1
  %5 = load i8, ptr @H5_libterm_g, align 1, !range !7
  %6 = trunc nuw i8 %5 to i1
  %7 = xor i1 %6, true
  %8 = select i1 %4, i1 true, i1 %7
  br i1 %8, label %.preheader31, label %.critedge, !prof !9

.preheader31:                                     ; preds = %2
  %9 = getelementptr inbounds nuw i8, ptr %0, i64 56
  %10 = load i32, ptr %9, align 8, !tbaa !11
  %.not40 = icmp eq i32 %10, 0
  br i1 %.not40, label %.critedge, label %.lr.ph.preheader

.lr.ph.preheader:                                 ; preds = %.preheader31
  %wide.trip.count = zext i32 %10 to i64
  br label %.lr.ph

11:                                               ; preds = %.lr.ph
  %indvars.iv.next = add nuw nsw i64 %indvars.iv, 1
  %exitcond.not = icmp eq i64 %indvars.iv.next, %wide.trip.count
  br i1 %exitcond.not, label %.critedge, label %.lr.ph, !llvm.loop !58

.lr.ph:                                           ; preds = %.lr.ph.preheader, %11
  %indvars.iv = phi i64 [ 0, %.lr.ph.preheader ], [ %indvars.iv.next, %11 ]
  %12 = getelementptr inbounds nuw i64, ptr %1, i64 %indvars.iv
  %13 = load i64, ptr %12, align 8, !tbaa !21
  %.not = icmp eq i64 %13, 0
  br i1 %.not, label %11, label %14

14:                                               ; preds = %.lr.ph
  %15 = getelementptr inbounds nuw i8, ptr %0, i64 360
  %16 = load ptr, ptr %15, align 8, !tbaa !10
  %17 = getelementptr inbounds nuw i8, ptr %16, i64 512
  %.02836 = load ptr, ptr %17, align 8, !tbaa !25
  %.not2937 = icmp eq ptr %.02836, null
  br i1 %.not2937, label %.preheader, label %.preheader30

.loopexit:                                        ; preds = %19
  %.028 = load ptr, ptr %.02838, align 8, !tbaa !25
  %.not29 = icmp eq ptr %.028, null
  br i1 %.not29, label %.preheader, label %.preheader30, !llvm.loop !59

.preheader30:                                     ; preds = %14, %.loopexit
  %.02838 = phi ptr [ %.028, %.loopexit ], [ %.02836, %14 ]
  %18 = getelementptr inbounds nuw i8, ptr %.02838, i64 8
  br label %19

.preheader:                                       ; preds = %.loopexit, %14
  %umax = tail call i32 @llvm.umax.i32(i32 %10, i32 1)
  %wide.trip.count51 = zext i32 %umax to i64
  br label %25

19:                                               ; preds = %.preheader30, %19
  %indvars.iv43 = phi i64 [ 0, %.preheader30 ], [ %indvars.iv.next44, %19 ]
  %20 = getelementptr inbounds nuw i64, ptr %1, i64 %indvars.iv43
  %21 = load i64, ptr %20, align 8, !tbaa !21
  %22 = getelementptr inbounds nuw [0 x i64], ptr %18, i64 0, i64 %indvars.iv43
  %23 = load i64, ptr %22, align 8, !tbaa !21
  %24 = sub i64 %23, %21
  store i64 %24, ptr %22, align 8, !tbaa !21
  %indvars.iv.next44 = add nuw nsw i64 %indvars.iv43, 1
  %exitcond47.not = icmp eq i64 %indvars.iv.next44, %wide.trip.count
  br i1 %exitcond47.not, label %.loopexit, label %19, !llvm.loop !60

25:                                               ; preds = %.preheader, %25
  %indvars.iv48 = phi i64 [ 0, %.preheader ], [ %indvars.iv.next49, %25 ]
  %26 = getelementptr inbounds nuw i64, ptr %1, i64 %indvars.iv48
  %27 = load i64, ptr %26, align 8, !tbaa !21
  %28 = load ptr, ptr %15, align 8, !tbaa !10
  %29 = getelementptr inbounds nuw [32 x i64], ptr %28, i64 0, i64 %indvars.iv48
  %30 = load i64, ptr %29, align 8, !tbaa !21
  %31 = sub i64 %30, %27
  store i64 %31, ptr %29, align 8, !tbaa !21
  %32 = load i64, ptr %26, align 8, !tbaa !21
  %33 = load ptr, ptr %15, align 8, !tbaa !10
  %34 = getelementptr inbounds nuw i8, ptr %33, i64 256
  %35 = getelementptr inbounds nuw [32 x i64], ptr %34, i64 0, i64 %indvars.iv48
  %36 = load i64, ptr %35, align 8, !tbaa !21
  %37 = sub i64 %36, %32
  store i64 %37, ptr %35, align 8, !tbaa !21
  %indvars.iv.next49 = add nuw nsw i64 %indvars.iv48, 1
  %exitcond52.not = icmp eq i64 %indvars.iv.next49, %wide.trip.count51
  br i1 %exitcond52.not, label %.critedge, label %25, !llvm.loop !61

.critedge:                                        ; preds = %11, %25, %.preheader31, %2
  ret i32 0
}